target datalayout = "e-m:e-p270:32:32-p271:32:32-p272:64:64-i64:64-i128:128-f80:128-n8:16:32:64-S128"
target triple = "x86_64-pc-linux-gnu"

@.str.4 = private unnamed_addr constant [11 x i8] c"dt_gslider\00", align 1

; Function Attrs: nounwind uwtable
define ptr @dtgtk_gradient_slider_new() #0 {
  %1 = alloca ptr, align 8
  call void @llvm.lifetime.start.p0(i64 8, ptr %1) #11
  %2 = call ptr @dtgtk_gradient_slider_multivalue_new(i32 noundef 1)
  store ptr %2, ptr %1, align 8, !tbaa !54
  %3 = load ptr, ptr %1, align 8, !tbaa !54
  call void @dt_gui_add_class(ptr noundef %3, ptr noundef @.str.4)
  %4 = load ptr, ptr %1, align 8, !tbaa !54
  call void @llvm.lifetime.end.p0(i64 8, ptr %1) #11
  ret ptr %4
}

; Function Attrs: nounwind uwtable
define ptr @dtgtk_gradient_slider_new_with_name(ptr noundef %0) #0 {
  %2 = alloca ptr, align 8
  %3 = alloca ptr, align 8
  store ptr %0, ptr %2, align 8, !tbaa !52
  call void @llvm.lifetime.start.p0(i64 8, ptr %3) #11
  %4 = call ptr @dtgtk_gradient_slider_new()
  %5 = call i64 @gtk_widget_get_type() #12
  %6 = call ptr @g_type_check_instance_cast(ptr noundef %4, i64 noundef %5)
  store ptr %6, ptr %3, align 8, !tbaa !54
  %7 = load ptr, ptr %2, align 8, !tbaa !52
  %8 = icmp ne ptr %7, null
  br i1 %8, label %9, label %12

9:                                                ; preds = %1
  %10 = load ptr, ptr %3, align 8, !tbaa !54
  %11 = load ptr, ptr %2, align 8, !tbaa !52
  call void @gtk_widget_set_name(ptr noundef %10, ptr noundef %11)
  br label %12

12:                                               ; preds = %9, %1
  %13 = load ptr, ptr %3, align 8, !tbaa !54
  call void @llvm.lifetime.end.p0(i64 8, ptr %3) #11
  ret ptr %13
}