; Function Attrs: nounwind uwtable
define ptr @dtgtk_gradient_slider_new_with_name(ptr noundef %0) local_unnamed_addr #0 {
  %2 = tail call ptr @dtgtk_gradient_slider_multivalue_new(i32 noundef 1)
  tail call void @dt_gui_add_class(ptr noundef %2, ptr noundef nonnull @.str.4) #14
  %3 = tail call i64 @gtk_widget_get_type() #15
  %4 = tail call ptr @g_type_check_instance_cast(ptr noundef %2, i64 noundef %3) #14
  %.not = icmp eq ptr %0, null
  br i1 %.not, label %6, label %5

5:                                                ; preds = %1
  tail call void @gtk_widget_set_name(ptr noundef %4, ptr noundef nonnull %0) #14
  br label %6

6:                                                ; preds = %5, %1
  ret ptr %4
}